; ModuleID = '22/153.c'
source_filename = "22/153.c"
target datalayout = "e-m:e-p270:32:32-p271:32:32-p272:64:64-i64:64-f80:128-n8:16:32:64-S128"
target triple = "x86_64-pc-linux-gnu"

@.str = private unnamed_addr constant [3 x i8] c"%d\00", align 1
@.str.1 = private unnamed_addr constant [3 x i8] c"%c\00", align 1
@.str.2 = private unnamed_addr constant [4 x i8] c"No\0A\00", align 1
@.str.3 = private unnamed_addr constant [4 x i8] c"%d\0A\00", align 1

; Function Attrs: noinline nounwind uwtable
define dso_local void @main() #0 {
  %1 = alloca i32, align 4
  %2 = alloca i32, align 4
  %3 = alloca i32, align 4
  %4 = alloca i32, align 4
  %5 = alloca [300 x i32], align 16
  %6 = alloca i8, align 1
  store i32 0, i32* %1, align 4
  br label %7

7:                                                ; preds = %21, %0
  %8 = load i32, i32* %1, align 4
  %9 = icmp sle i32 %8, 300
  br i1 %9, label %10, label %24

10:                                               ; preds = %7
  %11 = load i32, i32* %1, align 4
  %12 = sext i32 %11 to i64
  %13 = getelementptr inbounds [300 x i32], [300 x i32]* %5, i64 0, i64 %12
  %14 = call i32 (i8*, ...) @__isoc99_scanf(i8* getelementptr inbounds ([3 x i8], [3 x i8]* @.str, i64 0, i64 0), i32* %13)
  %15 = call i32 (i8*, ...) @__isoc99_scanf(i8* getelementptr inbounds ([3 x i8], [3 x i8]* @.str.1, i64 0, i64 0), i8* %6)
  %16 = load i8, i8* %6, align 1
  %17 = sext i8 %16 to i32
  %18 = icmp ne i32 %17, 44
  br i1 %18, label %19, label %20

19:                                               ; preds = %10
  br label %24

20:                                               ; preds = %10
  br label %21

21:                                               ; preds = %20
  %22 = load i32, i32* %1, align 4
  %23 = add nsw i32 %22, 1
  store i32 %23, i32* %1, align 4
  br label %7

24:                                               ; preds = %19, %7
  %25 = load i32, i32* %1, align 4
  %26 = icmp eq i32 %25, 0
  br i1 %26, label %27, label %29

27:                                               ; preds = %24
  %28 = call i32 (i8*, ...) @printf(i8* getelementptr inbounds ([4 x i8], [4 x i8]* @.str.2, i64 0, i64 0))
  br label %116

29:                                               ; preds = %24
  %30 = load i32, i32* %1, align 4
  store i32 %30, i32* %2, align 4
  br label %31

31:                                               ; preds = %73, %29
  %32 = load i32, i32* %2, align 4
  %33 = icmp sge i32 %32, 1
  br i1 %33, label %34, label %76

34:                                               ; preds = %31
  store i32 0, i32* %3, align 4
  br label %35

35:                                               ; preds = %69, %34
  %36 = load i32, i32* %3, align 4
  %37 = load i32, i32* %2, align 4
  %38 = icmp slt i32 %36, %37
  br i1 %38, label %39, label %72

39:                                               ; preds = %35
  %40 = load i32, i32* %3, align 4
  %41 = sext i32 %40 to i64
  %42 = getelementptr inbounds [300 x i32], [300 x i32]* %5, i64 0, i64 %41
  %43 = load i32, i32* %42, align 4
  %44 = load i32, i32* %3, align 4
  %45 = add nsw i32 %44, 1
  %46 = sext i32 %45 to i64
  %47 = getelementptr inbounds [300 x i32], [300 x i32]* %5, i64 0, i64 %46
  %48 = load i32, i32* %47, align 4
  %49 = icmp ult i32 %43, %48
  br i1 %49, label %50, label %68

50:                                               ; preds = %39
  %51 = load i32, i32* %3, align 4
  %52 = sext i32 %51 to i64
  %53 = getelementptr inbounds [300 x i32], [300 x i32]* %5, i64 0, i64 %52
  %54 = load i32, i32* %53, align 4
  store i32 %54, i32* %4, align 4
  %55 = load i32, i32* %3, align 4
  %56 = add nsw i32 %55, 1
  %57 = sext i32 %56 to i64
  %58 = getelementptr inbounds [300 x i32], [300 x i32]* %5, i64 0, i64 %57
  %59 = load i32, i32* %58, align 4
  %60 = load i32, i32* %3, align 4
  %61 = sext i32 %60 to i64
  %62 = getelementptr inbounds [300 x i32], [300 x i32]* %5, i64 0, i64 %61
  store i32 %59, i32* %62, align 4
  %63 = load i32, i32* %4, align 4
  %64 = load i32, i32* %3, align 4
  %65 = add nsw i32 %64, 1
  %66 = sext i32 %65 to i64
  %67 = getelementptr inbounds [300 x i32], [300 x i32]* %5, i64 0, i64 %66
  store i32 %63, i32* %67, align 4
  br label %68

68:                                               ; preds = %50, %39
  br label %69

69:                                               ; preds = %68
  %70 = load i32, i32* %3, align 4
  %71 = add nsw i32 %70, 1
  store i32 %71, i32* %3, align 4
  br label %35

72:                                               ; preds = %35
  br label %73

73:                                               ; preds = %72
  %74 = load i32, i32* %2, align 4
  %75 = add nsw i32 %74, -1
  store i32 %75, i32* %2, align 4
  br label %31

76:                                               ; preds = %31
  br label %77

77:                                               ; preds = %76
  %78 = getelementptr inbounds [300 x i32], [300 x i32]* %5, i64 0, i64 0
  %79 = load i32, i32* %78, align 16
  %80 = load i32, i32* %1, align 4
  %81 = sext i32 %80 to i64
  %82 = getelementptr inbounds [300 x i32], [300 x i32]* %5, i64 0, i64 %81
  %83 = load i32, i32* %82, align 4
  %84 = icmp eq i32 %79, %83
  br i1 %84, label %85, label %87

85:                                               ; preds = %77
  %86 = call i32 (i8*, ...) @printf(i8* getelementptr inbounds ([4 x i8], [4 x i8]* @.str.2, i64 0, i64 0))
  br label %116

87:                                               ; preds = %77
  store i32 0, i32* %2, align 4
  br label %88

88:                                               ; preds = %111, %87
  %89 = load i32, i32* %2, align 4
  %90 = load i32, i32* %1, align 4
  %91 = icmp sle i32 %89, %90
  br i1 %91, label %92, label %114

92:                                               ; preds = %88
  %93 = load i32, i32* %2, align 4
  %94 = add nsw i32 %93, 1
  %95 = sext i32 %94 to i64
  %96 = getelementptr inbounds [300 x i32], [300 x i32]* %5, i64 0, i64 %95
  %97 = load i32, i32* %96, align 4
  %98 = load i32, i32* %2, align 4
  %99 = sext i32 %98 to i64
  %100 = getelementptr inbounds [300 x i32], [300 x i32]* %5, i64 0, i64 %99
  %101 = load i32, i32* %100, align 4
  %102 = icmp ult i32 %97, %101
  br i1 %102, label %103, label %110

103:                                              ; preds = %92
  %104 = load i32, i32* %2, align 4
  %105 = add nsw i32 %104, 1
  %106 = sext i32 %105 to i64
  %107 = getelementptr inbounds [300 x i32], [300 x i32]* %5, i64 0, i64 %106
  %108 = load i32, i32* %107, align 4
  %109 = call i32 (i8*, ...) @printf(i8* getelementptr inbounds ([4 x i8], [4 x i8]* @.str.3, i64 0, i64 0), i32 %108)
  br label %114

110:                                              ; preds = %92
  br label %111

111:                                              ; preds = %110
  %112 = load i32, i32* %2, align 4
  %113 = add nsw i32 %112, 1
  store i32 %113, i32* %2, align 4
  br label %88

114:                                              ; preds = %103, %88
  br label %115

115:                                              ; preds = %114
  br label %116

116:                                              ; preds = %115, %85, %27
  ret void
}

declare dso_local i32 @__isoc99_scanf(i8*, ...) #1

declare dso_local i32 @printf(i8*, ...) #1


!llvm.module.flags = !{!0}
!llvm.ident = !{!1}

!0 = !{i32 1, !"wchar_size", i32 4}
!1 = !{!"clang version 10.0.0-4ubuntu1 "}
